target datalayout = "e-m:e-p270:32:32-p271:32:32-p272:64:64-i64:64-i128:128-f80:128-n8:16:32:64-S128"
target triple = "x86_64-pc-linux-gnu"

%class.VirtualMemory = type { i64, i64, i64 }
%class.AllocationSite.base = type <{ %class.NativeCallStack, i8 }>
%class.NativeCallStack = type { [4 x ptr] }
%class.AllocationSite = type <{ %class.NativeCallStack, i8, [7 x i8] }>
%class.VirtualMemoryAllocationSite = type { %class.AllocationSite.base, %class.VirtualMemory }

; Function Attrs: mustprogress nounwind uwtable
define linkonce_odr hidden noundef i64 @_ZNK13VirtualMemory9committedEv(ptr noundef nonnull align 8 dereferenceable(24) %0) #1 comdat align 2 {
  %2 = alloca ptr, align 8
  store ptr %0, ptr %2, align 8
  %3 = load ptr, ptr %2, align 8
  %4 = getelementptr inbounds %class.VirtualMemory, ptr %3, i32 0, i32 1
  %5 = load i64, ptr %4, align 8
  ret i64 %5
}

; Function Attrs: mustprogress nounwind uwtable
define linkonce_odr hidden noundef i64 @_ZNK13VirtualMemory8reservedEv(ptr noundef nonnull align 8 dereferenceable(24) %0) #1 comdat align 2 {
  %2 = alloca ptr, align 8
  store ptr %0, ptr %2, align 8
  %3 = load ptr, ptr %2, align 8
  %4 = getelementptr inbounds %class.VirtualMemory, ptr %3, i32 0, i32 0
  %5 = load i64, ptr %4, align 8
  ret i64 %5
}

; Function Attrs: mustprogress nounwind uwtable
define linkonce_odr hidden noundef zeroext i8 @_ZNK14AllocationSite4flagEv(ptr noundef nonnull align 8 dereferenceable(33) %0) #1 comdat align 2 {
  %2 = alloca ptr, align 8
  store ptr %0, ptr %2, align 8
  %3 = load ptr, ptr %2, align 8
  %4 = getelementptr inbounds %class.AllocationSite, ptr %3, i32 0, i32 1
  %5 = load i8, ptr %4, align 8
  ret i8 %5
}

; Function Attrs: mustprogress nounwind uwtable
define linkonce_odr hidden noundef i64 @_ZNK27VirtualMemoryAllocationSite9committedEv(ptr noundef nonnull align 8 dereferenceable(64) %0) #1 comdat align 2 {
  %2 = alloca ptr, align 8
  store ptr %0, ptr %2, align 8
  %3 = load ptr, ptr %2, align 8
  %4 = getelementptr inbounds %class.VirtualMemoryAllocationSite, ptr %3, i32 0, i32 1
  %5 = call noundef i64 @_ZNK13VirtualMemory9committedEv(ptr noundef nonnull align 8 dereferenceable(24) %4)
  ret i64 %5
}

; Function Attrs: mustprogress nounwind uwtable
define linkonce_odr hidden noundef i64 @_ZNK27VirtualMemoryAllocationSite8reservedEv(ptr noundef nonnull align 8 dereferenceable(64) %0) #1 comdat align 2 {
  %2 = alloca ptr, align 8
  store ptr %0, ptr %2, align 8
  %3 = load ptr, ptr %2, align 8
  %4 = getelementptr inbounds %class.VirtualMemoryAllocationSite, ptr %3, i32 0, i32 1
  %5 = call noundef i64 @_ZNK13VirtualMemory8reservedEv(ptr noundef nonnull align 8 dereferenceable(24) %4)
  ret i64 %5
}

; Function Attrs: mustprogress nounwind uwtable
define linkonce_odr hidden noundef ptr @_ZNK14AllocationSite10call_stackEv(ptr noundef nonnull align 8 dereferenceable(33) %0) #1 comdat align 2 {
  %2 = alloca ptr, align 8
  store ptr %0, ptr %2, align 8
  %3 = load ptr, ptr %2, align 8
  %4 = getelementptr inbounds %class.AllocationSite, ptr %3, i32 0, i32 0
  ret ptr %4
}

; Function Attrs: mustprogress nounwind uwtable
define hidden void @_ZNK21MemDetailDiffReporter24diff_virtual_memory_siteEPK27VirtualMemoryAllocationSiteS2_(ptr noundef nonnull align 8 dereferenceable(2464) %0, ptr noundef %1, ptr noundef %2) #1 align 2 {
  %4 = alloca ptr, align 8
  %5 = alloca ptr, align 8
  %6 = alloca ptr, align 8
  store ptr %0, ptr %4, align 8
  store ptr %1, ptr %5, align 8
  store ptr %2, ptr %6, align 8
  %7 = load ptr, ptr %4, align 8
  %8 = load ptr, ptr %6, align 8
  %9 = call noundef ptr @_ZNK14AllocationSite10call_stackEv(ptr noundef nonnull align 8 dereferenceable(33) %8)
  %10 = load ptr, ptr %6, align 8
  %11 = call noundef i64 @_ZNK27VirtualMemoryAllocationSite8reservedEv(ptr noundef nonnull align 8 dereferenceable(64) %10)
  %12 = load ptr, ptr %6, align 8
  %13 = call noundef i64 @_ZNK27VirtualMemoryAllocationSite9committedEv(ptr noundef nonnull align 8 dereferenceable(64) %12)
  %14 = load ptr, ptr %5, align 8
  %15 = call noundef i64 @_ZNK27VirtualMemoryAllocationSite8reservedEv(ptr noundef nonnull align 8 dereferenceable(64) %14)
  %16 = load ptr, ptr %5, align 8
  %17 = call noundef i64 @_ZNK27VirtualMemoryAllocationSite9committedEv(ptr noundef nonnull align 8 dereferenceable(64) %16)
  %18 = load ptr, ptr %6, align 8
  %19 = call noundef zeroext i8 @_ZNK14AllocationSite4flagEv(ptr noundef nonnull align 8 dereferenceable(33) %18)
  call void @_ZNK21MemDetailDiffReporter24diff_virtual_memory_siteEPK15NativeCallStackmmmm8MEMFLAGS(ptr noundef nonnull align 8 dereferenceable(2464) %7, ptr noundef %9, i64 noundef %11, i64 noundef %13, i64 noundef %15, i64 noundef %17, i8 noundef zeroext %19)
  ret void
}