; Function Attrs: mustprogress nounwind uwtable
define hidden void @_ZNK21MemDetailDiffReporter24diff_virtual_memory_siteEPK27VirtualMemoryAllocationSiteS2_(ptr noundef nonnull align 8 dereferenceable(2464) %0, ptr nocapture noundef readonly %1, ptr noundef %2) local_unnamed_addr #0 align 2 {
  %4 = getelementptr inbounds i8, ptr %2, i64 40
  %5 = load i64, ptr %4, align 8
  %6 = getelementptr inbounds i8, ptr %2, i64 48
  %7 = load i64, ptr %6, align 8
  %8 = getelementptr inbounds i8, ptr %1, i64 40
  %9 = load i64, ptr %8, align 8
  %10 = getelementptr inbounds i8, ptr %1, i64 48
  %11 = load i64, ptr %10, align 8
  %12 = getelementptr inbounds i8, ptr %2, i64 32
  %13 = load i8, ptr %12, align 8
  tail call void @_ZNK21MemDetailDiffReporter24diff_virtual_memory_siteEPK15NativeCallStackmmmm8MEMFLAGS(ptr noundef nonnull align 8 dereferenceable(2464) %0, ptr noundef %2, i64 noundef %5, i64 noundef %7, i64 noundef %9, i64 noundef %11, i8 noundef zeroext %13)
  ret void
}